target datalayout = "e-m:e-p270:32:32-p271:32:32-p272:64:64-i64:64-i128:128-f80:128-n8:16:32:64-S128"
target triple = "x86_64-pc-linux-gnu"

%struct._GdkEventKey = type { i32, ptr, i8, i32, i32, i32, i32, ptr, i16, i8, i8 }

; Function Attrs: nounwind uwtable
define dso_local i32 @key_released(ptr noundef %0, ptr noundef %1, ptr noundef %2) #0 {
  %4 = alloca i32, align 4
  %5 = alloca ptr, align 8
  %6 = alloca ptr, align 8
  %7 = alloca ptr, align 8
  %8 = alloca ptr, align 8
  %9 = alloca ptr, align 8
  %10 = alloca ptr, align 8
  %11 = alloca i32, align 4
  store ptr %0, ptr %5, align 8
  store ptr %1, ptr %6, align 8
  store ptr %2, ptr %7, align 8
  call void @llvm.lifetime.start.p0(i64 8, ptr %8) #11
  store ptr null, ptr %8, align 8
  call void @llvm.lifetime.start.p0(i64 8, ptr %9) #11
  call void @llvm.lifetime.start.p0(i64 8, ptr %10) #11
  store ptr null, ptr %10, align 8
  %12 = load ptr, ptr %6, align 8
  %13 = getelementptr inbounds nuw %struct._GdkEventKey, ptr %12, i32 0, i32 5
  %14 = load i32, ptr %13, align 4
  %15 = icmp ne i32 %14, 65362
  br i1 %15, label %16, label %27

16:                                               ; preds = %3
  %17 = load ptr, ptr %6, align 8
  %18 = getelementptr inbounds nuw %struct._GdkEventKey, ptr %17, i32 0, i32 5
  %19 = load i32, ptr %18, align 4
  %20 = icmp ne i32 %19, 65364
  br i1 %20, label %21, label %27

21:                                               ; preds = %16
  %22 = load ptr, ptr %6, align 8
  %23 = getelementptr inbounds nuw %struct._GdkEventKey, ptr %22, i32 0, i32 5
  %24 = load i32, ptr %23, align 4
  %25 = icmp ne i32 %24, 65293
  br i1 %25, label %26, label %27

26:                                               ; preds = %21
  store i32 1, ptr %4, align 4
  store i32 1, ptr %11, align 4
  br label %40

27:                                               ; preds = %21, %16, %3
  %28 = load ptr, ptr %5, align 8
  %29 = call i64 @gtk_tree_view_get_type() #12
  %30 = call ptr @g_type_check_instance_cast(ptr noundef %28, i64 noundef %29)
  call void @gtk_tree_view_get_cursor(ptr noundef %30, ptr noundef %8, ptr noundef %9)
  %31 = load ptr, ptr %8, align 8
  %32 = icmp ne ptr %31, null
  br i1 %32, label %33, label %39

33:                                               ; preds = %27
  %34 = load ptr, ptr %5, align 8
  %35 = call ptr @gtk_tree_view_get_selection(ptr noundef %34)
  store ptr %35, ptr %10, align 8
  %36 = load ptr, ptr %10, align 8
  %37 = load ptr, ptr %8, align 8
  call void @gtk_tree_selection_select_path(ptr noundef %36, ptr noundef %37)
  %38 = load ptr, ptr %8, align 8
  call void @gtk_tree_path_free(ptr noundef %38)
  br label %39

39:                                               ; preds = %33, %27
  store i32 1, ptr %4, align 4
  store i32 1, ptr %11, align 4
  br label %40

40:                                               ; preds = %39, %26
  call void @llvm.lifetime.end.p0(i64 8, ptr %10) #11
  call void @llvm.lifetime.end.p0(i64 8, ptr %9) #11
  call void @llvm.lifetime.end.p0(i64 8, ptr %8) #11
  %41 = load i32, ptr %4, align 4
  ret i32 %41
}