; Function Attrs: nounwind uwtable
define dso_local noundef i32 @key_released(ptr noundef %0, ptr noundef readonly captures(none) %1, ptr readnone captures(none) %2) #2 {
  %4 = alloca ptr, align 8
  %5 = alloca ptr, align 8
  call void @llvm.lifetime.start.p0(i64 8, ptr nonnull %4) #16
  store ptr null, ptr %4, align 8
  call void @llvm.lifetime.start.p0(i64 8, ptr nonnull %5) #16
  %6 = getelementptr inbounds nuw i8, ptr %1, i64 28
  %7 = load i32, ptr %6, align 4
  switch i32 %7, label %16 [
    i32 65362, label %8
    i32 65364, label %8
    i32 65293, label %8
  ]

8:                                                ; preds = %3, %3, %3
  %9 = tail call i64 @gtk_tree_view_get_type() #17
  %10 = tail call ptr @g_type_check_instance_cast(ptr noundef %0, i64 noundef %9) #16
  call void @gtk_tree_view_get_cursor(ptr noundef %10, ptr noundef nonnull %4, ptr noundef nonnull %5) #16
  %11 = load ptr, ptr %4, align 8
  %.not8 = icmp eq ptr %11, null
  br i1 %.not8, label %16, label %12

12:                                               ; preds = %8
  %13 = call ptr @gtk_tree_view_get_selection(ptr noundef %0) #16
  %14 = load ptr, ptr %4, align 8
  call void @gtk_tree_selection_select_path(ptr noundef %13, ptr noundef %14) #16
  %15 = load ptr, ptr %4, align 8
  call void @gtk_tree_path_free(ptr noundef %15) #16
  br label %16

16:                                               ; preds = %8, %12, %3
  call void @llvm.lifetime.end.p0(i64 8, ptr nonnull %5) #16
  call void @llvm.lifetime.end.p0(i64 8, ptr nonnull %4) #16
  ret i32 1
}